target datalayout = "e-m:e-p270:32:32-p271:32:32-p272:64:64-i64:64-i128:128-f80:128-n8:16:32:64-S128"
target triple = "x86_64-pc-linux-gnu"

%class.Type = type <{ ptr, ptr, i32, [4 x i8] }>

; Function Attrs: mustprogress nounwind uwtable
define linkonce_odr hidden noundef i32 @_ZNK4Type4baseEv(ptr noundef nonnull align 8 dereferenceable(20) %0) #1 comdat align 2 {
  %2 = alloca ptr, align 8
  store ptr %0, ptr %2, align 8
  %3 = load ptr, ptr %2, align 8
  %4 = getelementptr inbounds %class.Type, ptr %3, i32 0, i32 2
  %5 = load i32, ptr %4, align 8
  ret i32 %5
}

; Function Attrs: mustprogress nounwind uwtable
define hidden noundef zeroext i1 @_ZN7MemNode22check_if_adr_maybe_rawEP4Node(ptr noundef %0) #1 align 2 {
  %2 = alloca i1, align 1
  %3 = alloca ptr, align 8
  store ptr %0, ptr %3, align 8
  %4 = load ptr, ptr %3, align 8
  %5 = icmp ne ptr %4, null
  br i1 %5, label %6, label %24

6:                                                ; preds = %1
  %7 = load ptr, ptr %3, align 8
  %8 = load ptr, ptr %7, align 8
  %9 = getelementptr inbounds ptr, ptr %8, i64 5
  %10 = load ptr, ptr %9, align 8
  %11 = call noundef ptr %10(ptr noundef nonnull align 8 dereferenceable(52) %7)
  %12 = call noundef i32 @_ZNK4Type4baseEv(ptr noundef nonnull align 8 dereferenceable(20) %11)
  %13 = icmp eq i32 %12, 19
  br i1 %13, label %22, label %14

14:                                               ; preds = %6
  %15 = load ptr, ptr %3, align 8
  %16 = load ptr, ptr %15, align 8
  %17 = getelementptr inbounds ptr, ptr %16, i64 5
  %18 = load ptr, ptr %17, align 8
  %19 = call noundef ptr %18(ptr noundef nonnull align 8 dereferenceable(52) %15)
  %20 = call noundef i32 @_ZNK4Type4baseEv(ptr noundef nonnull align 8 dereferenceable(20) %19)
  %21 = icmp eq i32 %20, 18
  br i1 %21, label %22, label %23

22:                                               ; preds = %14, %6
  store i1 true, ptr %2, align 1
  br label %25

23:                                               ; preds = %14
  br label %24

24:                                               ; preds = %23, %1
  store i1 false, ptr %2, align 1
  br label %25

25:                                               ; preds = %24, %22
  %26 = load i1, ptr %2, align 1
  ret i1 %26
}