; Function Attrs: mustprogress nounwind uwtable
define hidden noundef zeroext i1 @_ZN7MemNode22check_if_adr_maybe_rawEP4Node(ptr noundef %0) local_unnamed_addr #1 align 2 {
  %.not = icmp eq ptr %0, null
  br i1 %.not, label %18, label %2

2:                                                ; preds = %1
  %3 = load ptr, ptr %0, align 8
  %4 = getelementptr inbounds i8, ptr %3, i64 40
  %5 = load ptr, ptr %4, align 8
  %6 = tail call noundef ptr %5(ptr noundef nonnull align 8 dereferenceable(52) %0) #13
  %7 = getelementptr inbounds i8, ptr %6, i64 16
  %8 = load i32, ptr %7, align 8
  %9 = icmp eq i32 %8, 19
  br i1 %9, label %19, label %10

10:                                               ; preds = %2
  %11 = load ptr, ptr %0, align 8
  %12 = getelementptr inbounds i8, ptr %11, i64 40
  %13 = load ptr, ptr %12, align 8
  %14 = tail call noundef ptr %13(ptr noundef nonnull align 8 dereferenceable(52) %0) #13
  %15 = getelementptr inbounds i8, ptr %14, i64 16
  %16 = load i32, ptr %15, align 8
  %17 = icmp eq i32 %16, 18
  br i1 %17, label %19, label %18

18:                                               ; preds = %10, %1
  br label %19

19:                                               ; preds = %2, %10, %18
  %.0 = phi i1 [ false, %18 ], [ true, %10 ], [ true, %2 ]
  ret i1 %.0
}